target datalayout = "e-m:e-p270:32:32-p271:32:32-p272:64:64-i64:64-i128:128-f80:128-n8:16:32:64-S128"
target triple = "x86_64-pc-linux-gnu"

%struct.stbte_tilemap = type { [200 x [200 x [8 x i16]]], [200 x [200 x [1 x float]]], i32, i32, i32, i32, i32, i32, i32, i32, i32, i32, i32, i32, [100 x ptr], i32, i32, ptr, i32, i32, i32, i8, i8, i8, i8, i32, i32, i32, [8 x %struct.stbte__layer], i32, i32, i32, i32, i32, i32, i32, i32, i16, [4096 x i8], ptr }
%struct.stbte__layer = type { ptr, i32, i32 }

; Function Attrs: nounwind uwtable
define void @stbte_set_spacing(ptr noundef %0, i32 noundef %1, i32 noundef %2, i32 noundef %3, i32 noundef %4) #0 {
  %6 = alloca ptr, align 8
  %7 = alloca i32, align 4
  %8 = alloca i32, align 4
  %9 = alloca i32, align 4
  %10 = alloca i32, align 4
  store ptr %0, ptr %6, align 8, !tbaa !25
  store i32 %1, ptr %7, align 4, !tbaa !13
  store i32 %2, ptr %8, align 4, !tbaa !13
  store i32 %3, ptr %9, align 4, !tbaa !13
  store i32 %4, ptr %10, align 4, !tbaa !13
  %11 = load i32, ptr %7, align 4, !tbaa !13
  %12 = load ptr, ptr %6, align 8, !tbaa !25
  %13 = getelementptr inbounds nuw %struct.stbte_tilemap, ptr %12, i32 0, i32 5
  store i32 %11, ptr %13, align 4, !tbaa !33
  %14 = load i32, ptr %8, align 4, !tbaa !13
  %15 = load ptr, ptr %6, align 8, !tbaa !25
  %16 = getelementptr inbounds nuw %struct.stbte_tilemap, ptr %15, i32 0, i32 6
  store i32 %14, ptr %16, align 8, !tbaa !34
  %17 = load i32, ptr %9, align 4, !tbaa !13
  %18 = load ptr, ptr %6, align 8, !tbaa !25
  %19 = getelementptr inbounds nuw %struct.stbte_tilemap, ptr %18, i32 0, i32 7
  store i32 %17, ptr %19, align 4, !tbaa !38
  %20 = load i32, ptr %10, align 4, !tbaa !13
  %21 = load ptr, ptr %6, align 8, !tbaa !25
  %22 = getelementptr inbounds nuw %struct.stbte_tilemap, ptr %21, i32 0, i32 8
  store i32 %20, ptr %22, align 8, !tbaa !39
  ret void
}