; Function Attrs: mustprogress nofree norecurse nosync nounwind willreturn memory(argmem: write) uwtable
define void @stbte_set_spacing(ptr noundef writeonly captures(none) initializes((800012, 800028)) %0, i32 noundef %1, i32 noundef %2, i32 noundef %3, i32 noundef %4) local_unnamed_addr #5 {
  %6 = getelementptr inbounds nuw i8, ptr %0, i64 800012
  store i32 %1, ptr %6, align 4, !tbaa !31
  %7 = getelementptr inbounds nuw i8, ptr %0, i64 800016
  store i32 %2, ptr %7, align 8, !tbaa !32
  %8 = getelementptr inbounds nuw i8, ptr %0, i64 800020
  store i32 %3, ptr %8, align 4, !tbaa !36
  %9 = getelementptr inbounds nuw i8, ptr %0, i64 800024
  store i32 %4, ptr %9, align 8, !tbaa !37
  ret void
}